target datalayout = "e-m:e-p270:32:32-p271:32:32-p272:64:64-i64:64-i128:128-f80:128-n8:16:32:64-S128"
target triple = "x86_64-pc-linux-gnu"

%struct.timeval = type { i64, i64 }
%union.pthread_mutex_t = type { %struct.__pthread_mutex_s }
%struct.__pthread_mutex_s = type { i32, i32, i32, i32, i32, i16, i16, %struct.__pthread_internal_list }
%struct.__pthread_internal_list = type { ptr, ptr }
%struct.event = type { %struct.event_callback, %union.anon.1, i32, ptr, %union.anon.3, i16, i16, %struct.timeval }
%struct.event_callback = type { %struct.anon.0, i16, i8, i8, %union.anon, ptr }
%struct.anon.0 = type { ptr, ptr }
%union.anon = type { ptr }
%union.anon.1 = type { %struct.anon.2 }
%struct.anon.2 = type { ptr, ptr }
%union.anon.3 = type { %struct.anon.4 }
%struct.anon.4 = type { %struct.anon.5, %struct.timeval }
%struct.anon.5 = type { ptr, ptr }
%struct.conn = type { ptr, i32, i8, i8, i8, i8, i8, i8, i8, i8, ptr, i32, i32, i32, %struct.event, i16, i16, ptr, ptr, i32, i32, ptr, ptr, ptr, i32, ptr, i32, i32, i32, i32, i32, i32, i32, %struct.sockaddr_in6, i32, i8, %struct.anon.9, %union.protocol_binary_request_header, i64, i64, i16, i32, i32, ptr, ptr, ptr, ptr, ptr, ptr }
%struct.sockaddr_in6 = type { i16, i16, i32, %struct.in6_addr, i32 }
%struct.in6_addr = type { %union.anon.8 }
%union.anon.8 = type { [4 x i32] }
%struct.anon.9 = type { ptr, i64, i64 }
%union.protocol_binary_request_header = type { %struct.anon.10 }
%struct.anon.10 = type { i8, i8, i16, i8, i8, i16, i32, i32, i64 }
%struct.LIBEVENT_THREAD = type { i64, ptr, %struct.thread_notify, %struct.thread_notify, %union.pthread_mutex_t, %struct.iop_head_s, i32, i32, i32, %struct.thread_stats, [3 x %struct.io_queue_s], ptr, ptr, ptr, ptr, ptr, ptr, ptr, i32 }
%struct.thread_notify = type { %struct.event, i32 }
%struct.iop_head_s = type { ptr, ptr }
%struct.thread_stats = type { %union.pthread_mutex_t, i64, i64, i64, i64, i64, i64, i64, i64, i64, i64, i64, i64, i64, i64, i64, i64, i64, i64, i64, i64, i64, i64, i64, i64, i64, i64, i64, i64, i64, i64, [64 x %struct.slab_stats], [256 x i64], i64, i64, i64 }
%struct.slab_stats = type { i64, i64, i64, i64, i64, i64, i64, i64 }
%struct.io_queue_s = type { ptr, %struct.iop_head_s, ptr, i32 }

; Function Attrs: nounwind uwtable
define dso_local zeroext i1 @rbuf_switch_to_malloc(ptr noundef %0) #0 {
  %2 = alloca i1, align 1
  %3 = alloca ptr, align 8
  %4 = alloca i64, align 8
  %5 = alloca ptr, align 8
  %6 = alloca i32, align 4
  store ptr %0, ptr %3, align 8, !tbaa !10
  call void @llvm.lifetime.start.p0(i64 8, ptr %4) #15
  %7 = load ptr, ptr %3, align 8, !tbaa !10
  %8 = getelementptr inbounds nuw %struct.conn, ptr %7, i32 0, i32 19
  %9 = load i32, ptr %8, align 8, !tbaa !13
  %10 = mul nsw i32 %9, 2
  %11 = sext i32 %10 to i64
  store i64 %11, ptr %4, align 8, !tbaa !4
  call void @llvm.lifetime.start.p0(i64 8, ptr %5) #15
  %12 = load i64, ptr %4, align 8, !tbaa !4
  %13 = call noalias ptr @malloc(i64 noundef %12) #16
  store ptr %13, ptr %5, align 8, !tbaa !29
  %14 = load ptr, ptr %5, align 8, !tbaa !29
  %15 = icmp ne ptr %14, null
  br i1 %15, label %17, label %16

16:                                               ; preds = %1
  store i1 false, ptr %2, align 1
  store i32 1, ptr %6, align 4
  br label %45

17:                                               ; preds = %1
  %18 = load ptr, ptr %5, align 8, !tbaa !29
  %19 = load ptr, ptr %3, align 8, !tbaa !10
  %20 = getelementptr inbounds nuw %struct.conn, ptr %19, i32 0, i32 18
  %21 = load ptr, ptr %20, align 8, !tbaa !30
  %22 = load ptr, ptr %3, align 8, !tbaa !10
  %23 = getelementptr inbounds nuw %struct.conn, ptr %22, i32 0, i32 20
  %24 = load i32, ptr %23, align 4, !tbaa !31
  %25 = sext i32 %24 to i64
  call void @llvm.memcpy.p0.p0.i64(ptr align 1 %18, ptr align 1 %21, i64 %25, i1 false)
  %26 = load ptr, ptr %3, align 8, !tbaa !10
  %27 = getelementptr inbounds nuw %struct.conn, ptr %26, i32 0, i32 44
  %28 = load ptr, ptr %27, align 8, !tbaa !32
  %29 = getelementptr inbounds nuw %struct.LIBEVENT_THREAD, ptr %28, i32 0, i32 12
  %30 = load ptr, ptr %29, align 8, !tbaa !33
  %31 = load ptr, ptr %3, align 8, !tbaa !10
  %32 = getelementptr inbounds nuw %struct.conn, ptr %31, i32 0, i32 17
  %33 = load ptr, ptr %32, align 8, !tbaa !43
  call void @do_cache_free(ptr noundef %30, ptr noundef %33)
  %34 = load ptr, ptr %5, align 8, !tbaa !29
  %35 = load ptr, ptr %3, align 8, !tbaa !10
  %36 = getelementptr inbounds nuw %struct.conn, ptr %35, i32 0, i32 17
  store ptr %34, ptr %36, align 8, !tbaa !43
  %37 = load ptr, ptr %3, align 8, !tbaa !10
  %38 = getelementptr inbounds nuw %struct.conn, ptr %37, i32 0, i32 18
  store ptr %34, ptr %38, align 8, !tbaa !30
  %39 = load i64, ptr %4, align 8, !tbaa !4
  %40 = trunc i64 %39 to i32
  %41 = load ptr, ptr %3, align 8, !tbaa !10
  %42 = getelementptr inbounds nuw %struct.conn, ptr %41, i32 0, i32 19
  store i32 %40, ptr %42, align 8, !tbaa !13
  %43 = load ptr, ptr %3, align 8, !tbaa !10
  %44 = getelementptr inbounds nuw %struct.conn, ptr %43, i32 0, i32 7
  store i8 1, ptr %44, align 1, !tbaa !44
  store i1 true, ptr %2, align 1
  store i32 1, ptr %6, align 4
  br label %45

45:                                               ; preds = %17, %16
  call void @llvm.lifetime.end.p0(i64 8, ptr %5) #15
  call void @llvm.lifetime.end.p0(i64 8, ptr %4) #15
  %46 = load i1, ptr %2, align 1
  ret i1 %46
}