; Function Attrs: nounwind uwtable
define dso_local noundef zeroext i1 @rbuf_switch_to_malloc(ptr noundef captures(none) %0) local_unnamed_addr #1 {
  %2 = getelementptr inbounds nuw i8, ptr %0, i64 200
  %3 = load i32, ptr %2, align 8, !tbaa !10
  %4 = shl nsw i32 %3, 1
  %5 = sext i32 %4 to i64
  %6 = tail call noalias ptr @malloc(i64 noundef %5) #35
  %.not = icmp ne ptr %6, null
  br i1 %.not, label %7, label %20

7:                                                ; preds = %1
  %8 = getelementptr inbounds nuw i8, ptr %0, i64 192
  %9 = load ptr, ptr %8, align 8, !tbaa !28
  %10 = getelementptr inbounds nuw i8, ptr %0, i64 204
  %11 = load i32, ptr %10, align 4, !tbaa !29
  %12 = sext i32 %11 to i64
  tail call void @llvm.memcpy.p0.p0.i64(ptr nonnull align 1 %6, ptr align 1 %9, i64 %12, i1 false)
  %13 = getelementptr inbounds nuw i8, ptr %0, i64 400
  %14 = load ptr, ptr %13, align 8, !tbaa !30
  %15 = getelementptr inbounds nuw i8, ptr %14, i64 6936
  %16 = load ptr, ptr %15, align 8, !tbaa !31
  %17 = getelementptr inbounds nuw i8, ptr %0, i64 184
  %18 = load ptr, ptr %17, align 8, !tbaa !41
  tail call void @do_cache_free(ptr noundef %16, ptr noundef %18) #34
  store ptr %6, ptr %17, align 8, !tbaa !41
  store ptr %6, ptr %8, align 8, !tbaa !28
  store i32 %4, ptr %2, align 8, !tbaa !10
  %19 = getelementptr inbounds nuw i8, ptr %0, i64 17
  store i8 1, ptr %19, align 1, !tbaa !42
  br label %20

20:                                               ; preds = %1, %7
  ret i1 %.not
}